target datalayout = "e-m:e-p270:32:32-p271:32:32-p272:64:64-i64:64-i128:128-f80:128-n8:16:32:64-S128"
target triple = "x86_64-pc-linux-gnu"

%struct.Ivy_Obj_t_ = type { i32, i32, i32, i32, ptr, ptr, ptr, ptr, ptr, ptr, ptr, ptr }
%struct.Ivy_Man_t_ = type { ptr, ptr, ptr, ptr, ptr, %struct.Ivy_Obj_t_, [8 x i32], i32, i32, ptr, i32, i32, i32, i32, ptr, i32, ptr, ptr, ptr, i32, ptr, ptr, ptr, i64, i64 }

@.str = private unnamed_addr constant [4 x i8] c"%d \00", align 1

; Function Attrs: nounwind uwtable
define void @Ivy_TableProfile(ptr noundef %0) #0 {
  %2 = alloca ptr, align 8
  %3 = alloca i32, align 4
  %4 = alloca i32, align 4
  store ptr %0, ptr %2, align 8, !tbaa !3
  call void @llvm.lifetime.start.p0(i64 4, ptr %3) #7
  call void @llvm.lifetime.start.p0(i64 4, ptr %4) #7
  store i32 0, ptr %4, align 4, !tbaa !19
  store i32 0, ptr %3, align 4, !tbaa !19
  br label %5

5:                                                ; preds = %31, %1
  %6 = load i32, ptr %3, align 4, !tbaa !19
  %7 = load ptr, ptr %2, align 8, !tbaa !3
  %8 = getelementptr inbounds nuw %struct.Ivy_Man_t_, ptr %7, i32 0, i32 10
  %9 = load i32, ptr %8, align 8, !tbaa !13
  %10 = icmp slt i32 %6, %9
  br i1 %10, label %11, label %34

11:                                               ; preds = %5
  %12 = load ptr, ptr %2, align 8, !tbaa !3
  %13 = getelementptr inbounds nuw %struct.Ivy_Man_t_, ptr %12, i32 0, i32 9
  %14 = load ptr, ptr %13, align 8, !tbaa !20
  %15 = load i32, ptr %3, align 4, !tbaa !19
  %16 = sext i32 %15 to i64
  %17 = getelementptr inbounds i32, ptr %14, i64 %16
  %18 = load i32, ptr %17, align 4, !tbaa !19
  %19 = icmp ne i32 %18, 0
  br i1 %19, label %20, label %23

20:                                               ; preds = %11
  %21 = load i32, ptr %4, align 4, !tbaa !19
  %22 = add nsw i32 %21, 1
  store i32 %22, ptr %4, align 4, !tbaa !19
  br label %30

23:                                               ; preds = %11
  %24 = load i32, ptr %4, align 4, !tbaa !19
  %25 = icmp ne i32 %24, 0
  br i1 %25, label %26, label %29

26:                                               ; preds = %23
  %27 = load i32, ptr %4, align 4, !tbaa !19
  %28 = call i32 (ptr, ...) @printf(ptr noundef @.str, i32 noundef %27)
  store i32 0, ptr %4, align 4, !tbaa !19
  br label %29

29:                                               ; preds = %26, %23
  br label %30

30:                                               ; preds = %29, %20
  br label %31

31:                                               ; preds = %30
  %32 = load i32, ptr %3, align 4, !tbaa !19
  %33 = add nsw i32 %32, 1
  store i32 %33, ptr %3, align 4, !tbaa !19
  br label %5, !llvm.loop !33

34:                                               ; preds = %5
  call void @llvm.lifetime.end.p0(i64 4, ptr %4) #7
  call void @llvm.lifetime.end.p0(i64 4, ptr %3) #7
  ret void
}