; Function Attrs: nofree nounwind uwtable
define void @Ivy_TableProfile(ptr noundef readonly captures(none) %0) local_unnamed_addr #4 {
  %2 = getelementptr inbounds nuw i8, ptr %0, i64 168
  %3 = load i32, ptr %2, align 8, !tbaa !12
  %4 = icmp sgt i32 %3, 0
  br i1 %4, label %.lr.ph, label %._crit_edge

.lr.ph:                                           ; preds = %1
  %5 = getelementptr inbounds nuw i8, ptr %0, i64 160
  br label %6

6:                                                ; preds = %.lr.ph, %16
  %7 = phi i32 [ %3, %.lr.ph ], [ %17, %16 ]
  %indvars.iv = phi i64 [ 0, %.lr.ph ], [ %indvars.iv.next, %16 ]
  %.010 = phi i32 [ 0, %.lr.ph ], [ %.1, %16 ]
  %8 = load ptr, ptr %5, align 8, !tbaa !20
  %9 = getelementptr inbounds nuw i32, ptr %8, i64 %indvars.iv
  %10 = load i32, ptr %9, align 4, !tbaa !21
  %.not = icmp eq i32 %10, 0
  br i1 %.not, label %13, label %11

11:                                               ; preds = %6
  %12 = add nsw i32 %.010, 1
  br label %16

13:                                               ; preds = %6
  %.not8 = icmp eq i32 %.010, 0
  br i1 %.not8, label %16, label %14

14:                                               ; preds = %13
  %15 = tail call i32 (ptr, ...) @printf(ptr noundef nonnull dereferenceable(1) @.str, i32 noundef %.010)
  %.pre = load i32, ptr %2, align 8, !tbaa !12
  br label %16

16:                                               ; preds = %11, %14, %13
  %17 = phi i32 [ %7, %11 ], [ %.pre, %14 ], [ %7, %13 ]
  %.1 = phi i32 [ %12, %11 ], [ 0, %14 ], [ 0, %13 ]
  %indvars.iv.next = add nuw nsw i64 %indvars.iv, 1
  %18 = sext i32 %17 to i64
  %19 = icmp slt i64 %indvars.iv.next, %18
  br i1 %19, label %6, label %._crit_edge, !llvm.loop !34

._crit_edge:                                      ; preds = %16, %1
  ret void
}